target datalayout = "e-m:e-p270:32:32-p271:32:32-p272:64:64-i64:64-i128:128-f80:128-n8:16:32:64-S128"
target triple = "x86_64-pc-linux-gnu"

%"struct.Luau::AstNameTable::Entry" = type { %"struct.Luau::AstName", i32, i32 }
%"struct.Luau::AstName" = type { ptr }

; Function Attrs: mustprogress nounwind uwtable
define dso_local noundef i64 @_ZNK4Luau12AstNameTable9EntryHashclERKNS0_5EntryE(ptr noundef nonnull align 1 dereferenceable(1) %0, ptr noundef nonnull align 8 dereferenceable(16) %1) #2 align 2 {
  %3 = alloca ptr, align 8
  %4 = alloca ptr, align 8
  %5 = alloca i32, align 4
  %6 = alloca i64, align 8
  store ptr %0, ptr %3, align 8, !tbaa !47
  store ptr %1, ptr %4, align 8, !tbaa !41
  call void @llvm.lifetime.start.p0(i64 4, ptr %5) #18
  store i32 -2128831035, ptr %5, align 4, !tbaa !4
  call void @llvm.lifetime.start.p0(i64 8, ptr %6) #18
  store i64 0, ptr %6, align 8, !tbaa !35
  br label %7

7:                                                ; preds = %28, %2
  %8 = load i64, ptr %6, align 8, !tbaa !35
  %9 = load ptr, ptr %4, align 8, !tbaa !41
  %10 = getelementptr inbounds nuw %"struct.Luau::AstNameTable::Entry", ptr %9, i32 0, i32 1
  %11 = load i32, ptr %10, align 8, !tbaa !43
  %12 = zext i32 %11 to i64
  %13 = icmp ult i64 %8, %12
  br i1 %13, label %15, label %14

14:                                               ; preds = %7
  call void @llvm.lifetime.end.p0(i64 8, ptr %6) #18
  br label %31

15:                                               ; preds = %7
  %16 = load ptr, ptr %4, align 8, !tbaa !41
  %17 = getelementptr inbounds nuw %"struct.Luau::AstNameTable::Entry", ptr %16, i32 0, i32 0
  %18 = getelementptr inbounds nuw %"struct.Luau::AstName", ptr %17, i32 0, i32 0
  %19 = load ptr, ptr %18, align 8, !tbaa !46
  %20 = load i64, ptr %6, align 8, !tbaa !35
  %21 = getelementptr inbounds nuw i8, ptr %19, i64 %20
  %22 = load i8, ptr %21, align 1, !tbaa !34
  %23 = zext i8 %22 to i32
  %24 = load i32, ptr %5, align 4, !tbaa !4
  %25 = xor i32 %24, %23
  store i32 %25, ptr %5, align 4, !tbaa !4
  %26 = load i32, ptr %5, align 4, !tbaa !4
  %27 = mul i32 %26, 16777619
  store i32 %27, ptr %5, align 4, !tbaa !4
  br label %28

28:                                               ; preds = %15
  %29 = load i64, ptr %6, align 8, !tbaa !35
  %30 = add i64 %29, 1
  store i64 %30, ptr %6, align 8, !tbaa !35
  br label %7, !llvm.loop !49

31:                                               ; preds = %14
  %32 = load i32, ptr %5, align 4, !tbaa !4
  %33 = zext i32 %32 to i64
  call void @llvm.lifetime.end.p0(i64 4, ptr %5) #18
  ret i64 %33
}