; Function Attrs: mustprogress nofree norecurse nosync nounwind willreturn memory(read, inaccessiblemem: none) uwtable
define dso_local noundef range(i64 0, 4294967296) i64 @_ZNK4Luau12AstNameTable9EntryHashclERKNS0_5EntryE(ptr noundef nonnull readnone align 1 captures(none) dereferenceable(1) %0, ptr noundef nonnull readonly align 8 captures(none) dereferenceable(16) %1) local_unnamed_addr #8 align 2 {
  %3 = getelementptr inbounds nuw i8, ptr %1, i64 8
  %4 = load i32, ptr %3, align 8, !tbaa !26
  %5 = zext i32 %4 to i64
  %.not = icmp eq i32 %4, 0
  br i1 %.not, label %._crit_edge, label %.lr.ph

.lr.ph:                                           ; preds = %2
  %6 = load ptr, ptr %1, align 8, !tbaa !29
  br label %8

._crit_edge.loopexit:                             ; preds = %8
  %7 = zext i32 %13 to i64
  br label %._crit_edge

._crit_edge:                                      ; preds = %._crit_edge.loopexit, %2
  %.07.lcssa = phi i64 [ 2166136261, %2 ], [ %7, %._crit_edge.loopexit ]
  ret i64 %.07.lcssa

8:                                                ; preds = %.lr.ph, %8
  %.09 = phi i64 [ 0, %.lr.ph ], [ %14, %8 ]
  %.078 = phi i32 [ -2128831035, %.lr.ph ], [ %13, %8 ]
  %9 = getelementptr inbounds nuw i8, ptr %6, i64 %.09
  %10 = load i8, ptr %9, align 1, !tbaa !15
  %11 = zext i8 %10 to i32
  %12 = xor i32 %.078, %11
  %13 = mul i32 %12, 16777619
  %14 = add nuw nsw i64 %.09, 1
  %exitcond.not = icmp eq i64 %14, %5
  br i1 %exitcond.not, label %._crit_edge.loopexit, label %8, !llvm.loop !30
}